(dp0
S'9'
p1
ccopy_reg
_reconstructor
p2
(cteacher
Teacher
p3
c__builtin__
object
p4
Ntp5
Rp6
(dp7
S'user_list'
p8
(dp9
sS'password'
p10
S'9'
p11
sS'score'
p12
S'6'
p13
sS'number'
p14
g1
sbsS'0'
p15
g2
(cadmin
Admin
p16
g4
Ntp17
Rp18
(dp19
g10
g15
sS'list'
p20
g0
sg14
g15
sg8
(dp21
sbsS'3'
p22
g2
(cstudent
Student
p23
g4
Ntp24
Rp25
(dp26
S'_score'
p27
S'98'
p28
sg10
S'3'
p29
sg14
g22
sg8
(dp30
sbsS'2'
p31
g2
(g23
g4
Ntp32
Rp33
(dp34
g27
I0
sg10
S'22'
p35
sg14
g31
sg8
(dp36
sbs.