(dp0
S'1'
p1
(istudent
Student
p2
(dp3
S'user_list'
p4
(dp5
sS'password'
p6
S'1'
p7
sS'score'
p8
S'99'
p9
sS'number'
p10
g1
sbsS'0'
p11
(iadmin
Admin
p12
(dp13
g6
g11
sS'list'
p14
g0
sg10
g11
sg4
(dp15
sbsS'3'
p16
(istudent
Student
p17
(dp18
g6
S'3'
p19
sg8
I0
sg4
(dp20
sg10
g16
sbsS'2'
p21
(istudent
Student
p22
(dp23
g8
I0
sg6
S'2'
p24
sg10
g21
sg4
(dp25
sbsS'4'
p26
(istudent
Student
p27
(dp28
g6
S'4'
p29
sg8
I0
sg4
(dp30
sg10
g26
sbsS'9'
p31
(iteacher
Teacher
p32
(dp33
g6
S'9'
p34
sg10
g31
sg4
(dp35
sbs.