(dp0
S'1'
p1
ccopy_reg
_reconstructor
p2
(cstudent
Student
p3
c__builtin__
object
p4
Ntp5
Rp6
(dp7
S'is_exit'
p8
I00
sS'_score'
p9
S'98'
p10
sS'password'
p11
S'1'
p12
sS'number'
p13
g1
sS'user_list'
p14
(dp15
sbsS'0'
p16
g2
(cadmin
Admin
p17
g4
Ntp18
Rp19
(dp20
g8
I00
sg11
g16
sS'list'
p21
g0
sg13
g16
sg14
(dp22
sbsS'2'
p23
g2
(g3
g4
Ntp24
Rp25
(dp26
g8
I00
sg9
S'78'
p27
sg11
S'2'
p28
sg13
g23
sg14
(dp29
sbsS'9'
p30
g2
(cteacher
Teacher
p31
g4
Ntp32
Rp33
(dp34
g8
I00
sg11
S'9'
p35
sg13
g30
sg14
(dp36
sbs.