(dp0
S'1'
p1
ccopy_reg
_reconstructor
p2
(cstudent
Student
p3
c__builtin__
object
p4
Ntp5
Rp6
(dp7
S'is_exit'
p8
I00
sS'_score'
p9
I0
sS'password'
p10
S'1'
p11
sS'number'
p12
g1
sS'user_list'
p13
(dp14
sbsS'0'
p15
g2
(cadmin
Admin
p16
g4
Ntp17
Rp18
(dp19
g8
I00
sg10
g15
sS'list'
p20
g0
sg12
g15
sg13
(dp21
sbsS'2'
p22
g2
(g3
g4
Ntp23
Rp24
(dp25
g8
I00
sg9
I0
sg10
S'2'
p26
sg12
g22
sg13
(dp27
sbsS'9'
p28
g2
(cteacher
Teacher
p29
g4
Ntp30
Rp31
(dp32
g8
I00
sg10
S'9'
p33
sg12
g28
sg13
(dp34
sbs.